target datalayout = "e-m:e-p270:32:32-p271:32:32-p272:64:64-i64:64-i128:128-f80:128-n8:16:32:64-S128"
target triple = "x86_64-pc-linux-gnu"

%struct.GenericXLogState = type { [4 x %union.PGIOAlignedBlock], [4 x %struct.GenericXLogPageData], i8, [3967 x i8] }
%union.PGIOAlignedBlock = type { double, [8184 x i8] }
%struct.GenericXLogPageData = type { i32, i32, i32, ptr, [8200 x i8] }

@.str = private unnamed_addr constant [54 x i8] c"maximum number %d of generic xlog buffers is exceeded\00", align 1
@.str.1 = private unnamed_addr constant [15 x i8] c"generic_xlog.c\00", align 1
@__func__.GenericXLogRegisterBuffer = private unnamed_addr constant [26 x i8] c"GenericXLogRegisterBuffer\00", align 1
@LocalBufferBlockPointers = external global ptr, align 8
@BufferBlocks = external global ptr, align 8

; Function Attrs: inlinehint nounwind uwtable
define internal ptr @BufferGetBlock(i32 noundef %0) #3 {
  %2 = alloca ptr, align 8
  %3 = alloca i32, align 4
  store i32 %0, ptr %3, align 4
  %4 = load i32, ptr %3, align 4
  %5 = icmp slt i32 %4, 0
  br i1 %5, label %6, label %14

6:                                                ; preds = %1
  %7 = load ptr, ptr @LocalBufferBlockPointers, align 8
  %8 = load i32, ptr %3, align 4
  %9 = sub i32 0, %8
  %10 = sub i32 %9, 1
  %11 = sext i32 %10 to i64
  %12 = getelementptr inbounds ptr, ptr %7, i64 %11
  %13 = load ptr, ptr %12, align 8
  store ptr %13, ptr %2, align 8
  br label %21

14:                                               ; preds = %1
  %15 = load ptr, ptr @BufferBlocks, align 8
  %16 = load i32, ptr %3, align 4
  %17 = sub i32 %16, 1
  %18 = sext i32 %17 to i64
  %19 = mul i64 %18, 8192
  %20 = getelementptr inbounds nuw i8, ptr %15, i64 %19
  store ptr %20, ptr %2, align 8
  br label %21

21:                                               ; preds = %14, %6
  %22 = load ptr, ptr %2, align 8
  ret ptr %22
}

; Function Attrs: inlinehint nounwind uwtable
define internal ptr @BufferGetPage(i32 noundef %0) #3 {
  %2 = alloca i32, align 4
  store i32 %0, ptr %2, align 4
  %3 = load i32, ptr %2, align 4
  %4 = call ptr @BufferGetBlock(i32 noundef %3)
  ret ptr %4
}

; Function Attrs: nounwind uwtable
define dso_local ptr @GenericXLogRegisterBuffer(ptr noundef %0, i32 noundef %1, i32 noundef %2) #0 {
  %4 = alloca ptr, align 8
  %5 = alloca ptr, align 8
  %6 = alloca i32, align 4
  %7 = alloca i32, align 4
  %8 = alloca i32, align 4
  %9 = alloca ptr, align 8
  %10 = alloca i32, align 4
  store ptr %0, ptr %5, align 8
  store i32 %1, ptr %6, align 4
  store i32 %2, ptr %7, align 4
  call void @llvm.lifetime.start.p0(i64 4, ptr %8) #7
  store i32 0, ptr %8, align 4
  br label %11

11:                                               ; preds = %54, %3
  %12 = load i32, ptr %8, align 4
  %13 = icmp slt i32 %12, 4
  br i1 %13, label %14, label %57

14:                                               ; preds = %11
  call void @llvm.lifetime.start.p0(i64 8, ptr %9) #7
  %15 = load ptr, ptr %5, align 8
  %16 = getelementptr inbounds nuw %struct.GenericXLogState, ptr %15, i32 0, i32 1
  %17 = load i32, ptr %8, align 4
  %18 = sext i32 %17 to i64
  %19 = getelementptr inbounds [4 x %struct.GenericXLogPageData], ptr %16, i64 0, i64 %18
  store ptr %19, ptr %9, align 8
  %20 = load ptr, ptr %9, align 8
  %21 = getelementptr inbounds nuw %struct.GenericXLogPageData, ptr %20, i32 0, i32 0
  %22 = load i32, ptr %21, align 8
  %23 = icmp eq i32 %22, 0
  br i1 %23, label %24, label %39

24:                                               ; preds = %14
  %25 = load i32, ptr %6, align 4
  %26 = load ptr, ptr %9, align 8
  %27 = getelementptr inbounds nuw %struct.GenericXLogPageData, ptr %26, i32 0, i32 0
  store i32 %25, ptr %27, align 8
  %28 = load i32, ptr %7, align 4
  %29 = load ptr, ptr %9, align 8
  %30 = getelementptr inbounds nuw %struct.GenericXLogPageData, ptr %29, i32 0, i32 1
  store i32 %28, ptr %30, align 4
  %31 = load ptr, ptr %9, align 8
  %32 = getelementptr inbounds nuw %struct.GenericXLogPageData, ptr %31, i32 0, i32 3
  %33 = load ptr, ptr %32, align 8
  %34 = load i32, ptr %6, align 4
  %35 = call ptr @BufferGetPage(i32 noundef %34)
  call void @llvm.memcpy.p0.p0.i64(ptr align 1 %33, ptr align 1 %35, i64 8192, i1 false)
  %36 = load ptr, ptr %9, align 8
  %37 = getelementptr inbounds nuw %struct.GenericXLogPageData, ptr %36, i32 0, i32 3
  %38 = load ptr, ptr %37, align 8
  store ptr %38, ptr %4, align 8
  store i32 1, ptr %10, align 4
  br label %51

39:                                               ; preds = %14
  %40 = load ptr, ptr %9, align 8
  %41 = getelementptr inbounds nuw %struct.GenericXLogPageData, ptr %40, i32 0, i32 0
  %42 = load i32, ptr %41, align 8
  %43 = load i32, ptr %6, align 4
  %44 = icmp eq i32 %42, %43
  br i1 %44, label %45, label %49

45:                                               ; preds = %39
  %46 = load ptr, ptr %9, align 8
  %47 = getelementptr inbounds nuw %struct.GenericXLogPageData, ptr %46, i32 0, i32 3
  %48 = load ptr, ptr %47, align 8
  store ptr %48, ptr %4, align 8
  store i32 1, ptr %10, align 4
  br label %51

49:                                               ; preds = %39
  br label %50

50:                                               ; preds = %49
  store i32 0, ptr %10, align 4
  br label %51

51:                                               ; preds = %50, %45, %24
  call void @llvm.lifetime.end.p0(i64 8, ptr %9) #7
  %52 = load i32, ptr %10, align 4
  switch i32 %52, label %68 [
    i32 0, label %53
  ]

53:                                               ; preds = %51
  br label %54

54:                                               ; preds = %53
  %55 = load i32, ptr %8, align 4
  %56 = add i32 %55, 1
  store i32 %56, ptr %8, align 4
  br label %11, !llvm.loop !6

57:                                               ; preds = %11
  br label %58

58:                                               ; preds = %57
  br i1 true, label %59, label %61

59:                                               ; preds = %58
  %60 = call zeroext i1 @errstart_cold(i32 noundef 21, ptr noundef null) #8
  br i1 %60, label %63, label %65

61:                                               ; preds = %58
  %62 = call zeroext i1 @errstart(i32 noundef 21, ptr noundef null)
  br i1 %62, label %63, label %65

63:                                               ; preds = %61, %59
  %64 = call i32 (ptr, ...) @errmsg_internal(ptr noundef @.str, i32 noundef 4)
  call void @errfinish(ptr noundef @.str.1, i32 noundef 327, ptr noundef @__func__.GenericXLogRegisterBuffer)
  br label %65

65:                                               ; preds = %63, %61, %59
  unreachable

66:                                               ; No predecessors!
  br label %67

67:                                               ; preds = %66
  store ptr null, ptr %4, align 8
  store i32 1, ptr %10, align 4
  br label %68

68:                                               ; preds = %67, %51
  call void @llvm.lifetime.end.p0(i64 4, ptr %8) #7
  %69 = load ptr, ptr %4, align 8
  ret ptr %69
}