; Function Attrs: nounwind uwtable
define dso_local ptr @GenericXLogRegisterBuffer(ptr noundef captures(none) %0, i32 noundef %1, i32 noundef %2) local_unnamed_addr #0 {
  %4 = getelementptr inbounds nuw i8, ptr %0, i64 32768
  br label %6

5:                                                ; preds = %27
  %indvars.iv.next = add nuw nsw i64 %indvars.iv, 1
  %exitcond.not = icmp eq i64 %indvars.iv.next, 4
  br i1 %exitcond.not, label %31, label %6, !llvm.loop !6

6:                                                ; preds = %3, %5
  %indvars.iv = phi i64 [ 0, %3 ], [ %indvars.iv.next, %5 ]
  %7 = getelementptr inbounds nuw [4 x %struct.GenericXLogPageData], ptr %4, i64 0, i64 %indvars.iv
  %8 = load i32, ptr %7, align 8
  %9 = icmp eq i32 %8, 0
  br i1 %9, label %10, label %27

10:                                               ; preds = %6
  store i32 %1, ptr %7, align 8
  %11 = getelementptr inbounds nuw i8, ptr %7, i64 4
  store i32 %2, ptr %11, align 4
  %12 = getelementptr inbounds nuw i8, ptr %7, i64 16
  %13 = load ptr, ptr %12, align 8
  %14 = icmp slt i32 %1, 0
  br i1 %14, label %15, label %21

15:                                               ; preds = %10
  %16 = load ptr, ptr @LocalBufferBlockPointers, align 8
  %17 = xor i32 %1, -1
  %18 = zext nneg i32 %17 to i64
  %19 = getelementptr inbounds nuw ptr, ptr %16, i64 %18
  %20 = load ptr, ptr %19, align 8
  br label %BufferGetPage.exit

21:                                               ; preds = %10
  %22 = load ptr, ptr @BufferBlocks, align 8
  %23 = add nsw i32 %1, -1
  %24 = sext i32 %23 to i64
  %25 = shl nsw i64 %24, 13
  %26 = getelementptr inbounds nuw i8, ptr %22, i64 %25
  br label %BufferGetPage.exit

BufferGetPage.exit:                               ; preds = %15, %21
  %.0.i.i = phi ptr [ %20, %15 ], [ %26, %21 ]
  tail call void @llvm.memcpy.p0.p0.i64(ptr noundef nonnull align 1 dereferenceable(8192) %13, ptr noundef nonnull align 1 dereferenceable(8192) %.0.i.i, i64 8192, i1 false)
  br label %34

27:                                               ; preds = %6
  %28 = icmp eq i32 %8, %1
  br i1 %28, label %29, label %5

29:                                               ; preds = %27
  %30 = getelementptr inbounds nuw i8, ptr %7, i64 16
  br label %34

31:                                               ; preds = %5
  %32 = tail call zeroext i1 @errstart_cold(i32 noundef 21, ptr noundef null) #9
  tail call void @llvm.assume(i1 %32)
  %33 = tail call i32 (ptr, ...) @errmsg_internal(ptr noundef nonnull @.str, i32 noundef 4) #8
  tail call void @errfinish(ptr noundef nonnull @.str.1, i32 noundef 327, ptr noundef nonnull @__func__.GenericXLogRegisterBuffer) #8
  unreachable

34:                                               ; preds = %BufferGetPage.exit, %29
  %.1.ph.in = phi ptr [ %30, %29 ], [ %12, %BufferGetPage.exit ]
  %.1.ph = load ptr, ptr %.1.ph.in, align 8
  ret ptr %.1.ph
}